; Function Attrs: nounwind uwtable
define internal noundef i32 @mqtt_done(ptr noundef readonly captures(none) %0, i32 %1, i1 zeroext %2) #0 {
  %4 = getelementptr inbounds nuw i8, ptr %0, i64 440
  %5 = load ptr, ptr %4, align 8, !tbaa !7
  %6 = load ptr, ptr @Curl_cfree, align 8, !tbaa !3
  %7 = load ptr, ptr %5, align 8, !tbaa !86
  tail call void %6(ptr noundef %7) #8
  store ptr null, ptr %5, align 8, !tbaa !86
  %8 = getelementptr inbounds nuw i8, ptr %5, i64 40
  tail call void @Curl_dyn_free(ptr noundef nonnull %8) #8
  ret i32 0
}